; Function Attrs: nounwind sspstrong uwtable
define dso_local noundef i64 @rb_str_succ(i64 noundef %0) #1 {
  %2 = inttoptr i64 %0 to ptr
  %3 = load i64, ptr %2, align 8, !tbaa !7, !noalias !309
  %4 = and i64 %3, 8192
  %.not.i.i = icmp eq i64 %4, 0
  %5 = getelementptr inbounds nuw i8, ptr %2, i64 24
  br i1 %.not.i.i, label %RSTRING_PTR.exit, label %6

6:                                                ; preds = %1
  %.sroa.2.0.copyload.i = load ptr, ptr %5, align 8
  br label %RSTRING_PTR.exit

RSTRING_PTR.exit:                                 ; preds = %1, %6
  %.sroa.2.0.i = phi ptr [ %.sroa.2.0.copyload.i, %6 ], [ %5, %1 ]
  %7 = getelementptr inbounds nuw i8, ptr %2, i64 16
  %8 = load i64, ptr %7, align 8, !tbaa !12
  %9 = load i64, ptr @rb_cString, align 8, !tbaa !26
  %10 = tail call nonnull ptr @rb_ascii8bit_encoding() #29
  %11 = tail call fastcc noundef i64 @str_enc_new(i64 noundef %9, ptr noundef %.sroa.2.0.i, i64 noundef %8, ptr noundef nonnull %10)
  tail call fastcc void @rb_enc_cr_str_copy_for_substr(i64 noundef %11, i64 noundef %0)
  %12 = tail call fastcc i64 @str_succ(i64 noundef %11)
  ret i64 %11
}